; Function Attrs: nounwind uwtable
define noalias noundef ptr @Acec_MatchCopy(ptr noundef readonly captures(none) %0, ptr noundef readonly captures(none) %1) local_unnamed_addr #2 {
  %3 = getelementptr i8, ptr %0, i64 4
  %.val18 = load i32, ptr %3, align 4
  %4 = tail call noalias dereferenceable_or_null(16) ptr @malloc(i64 noundef 16) #19
  %5 = add i32 %.val18, -1
  %or.cond.i.i = icmp ult i32 %5, 7
  %spec.store.select.i.i = select i1 %or.cond.i.i, i32 8, i32 %.val18
  store i32 %spec.store.select.i.i, ptr %4, align 8
  %.not.i.i = icmp eq i32 %spec.store.select.i.i, 0
  br i1 %.not.i.i, label %Vec_WecStart.exit, label %6

6:                                                ; preds = %2
  %7 = sext i32 %spec.store.select.i.i to i64
  %8 = tail call noalias ptr @calloc(i64 noundef %7, i64 noundef 16) #23
  br label %Vec_WecStart.exit

Vec_WecStart.exit:                                ; preds = %2, %6
  %9 = phi ptr [ %8, %6 ], [ null, %2 ]
  %10 = getelementptr inbounds nuw i8, ptr %4, i64 4
  %11 = getelementptr inbounds nuw i8, ptr %4, i64 8
  store ptr %9, ptr %11, align 8
  store i32 %.val18, ptr %10, align 4
  %12 = icmp sgt i32 %.val18, 0
  br i1 %12, label %.lr.ph28, label %.critedge

.lr.ph28:                                         ; preds = %Vec_WecStart.exit
  %13 = getelementptr i8, ptr %0, i64 8
  %14 = getelementptr i8, ptr %1, i64 8
  br label %15

15:                                               ; preds = %.lr.ph28, %.critedge2
  %.val33 = phi i32 [ %.val18, %.lr.ph28 ], [ %.val, %.critedge2 ]
  %indvars.iv30 = phi i64 [ 0, %.lr.ph28 ], [ %indvars.iv.next31.pre-phi, %.critedge2 ]
  %.val19 = load ptr, ptr %13, align 8
  %16 = getelementptr inbounds nuw %struct.Vec_Int_t_, ptr %.val19, i64 %indvars.iv30
  %17 = getelementptr i8, ptr %16, i64 4
  %.val2024 = load i32, ptr %17, align 4
  %18 = icmp sgt i32 %.val2024, 0
  br i1 %18, label %.lr.ph, label %..critedge2_crit_edge

..critedge2_crit_edge:                            ; preds = %15
  %.pre = add nuw nsw i64 %indvars.iv30, 1
  br label %.critedge2

.lr.ph:                                           ; preds = %15
  %19 = getelementptr i8, ptr %16, i64 8
  %20 = add nuw nsw i64 %indvars.iv30, 1
  %21 = trunc nuw nsw i64 %20 to i32
  br label %22

22:                                               ; preds = %.lr.ph, %Vec_WecPush.exit
  %indvars.iv = phi i64 [ 0, %.lr.ph ], [ %indvars.iv.next, %Vec_WecPush.exit ]
  %.val21 = load ptr, ptr %19, align 8
  %23 = getelementptr inbounds nuw i32, ptr %.val21, i64 %indvars.iv
  %24 = load i32, ptr %23, align 4
  %.val22 = load ptr, ptr %14, align 8
  %25 = ashr i32 %24, 1
  %26 = sext i32 %25 to i64
  %27 = getelementptr inbounds i32, ptr %.val22, i64 %26
  %28 = load i32, ptr %27, align 4
  %29 = and i32 %24, 1
  %30 = xor i32 %28, %29
  %31 = load i32, ptr %10, align 4
  %32 = sext i32 %31 to i64
  %.not.i = icmp slt i64 %indvars.iv30, %32
  br i1 %.not.i, label %52, label %33

33:                                               ; preds = %22
  %34 = shl nsw i32 %31, 1
  %35 = tail call range(i32 -2147483647, -2147483648) i32 @llvm.smax.i32(i32 %34, i32 range(i32 -2147483647, -2147483648) %21)
  %36 = load i32, ptr %4, align 8
  %.not.i.i23 = icmp slt i32 %36, %35
  br i1 %.not.i.i23, label %37, label %Vec_WecGrow.exit.i

37:                                               ; preds = %33
  %38 = load ptr, ptr %11, align 8
  %.not13.i.i = icmp eq ptr %38, null
  %39 = zext nneg i32 %35 to i64
  %40 = shl nuw nsw i64 %39, 4
  br i1 %.not13.i.i, label %43, label %41

41:                                               ; preds = %37
  %42 = tail call ptr @realloc(ptr noundef nonnull %38, i64 noundef %40) #21
  br label %45

43:                                               ; preds = %37
  %44 = tail call noalias ptr @malloc(i64 noundef %40) #19
  br label %45

45:                                               ; preds = %43, %41
  %46 = phi ptr [ %42, %41 ], [ %44, %43 ]
  store ptr %46, ptr %11, align 8
  %47 = sext i32 %36 to i64
  %48 = getelementptr inbounds %struct.Vec_Int_t_, ptr %46, i64 %47
  %49 = sub nsw i32 %35, %36
  %50 = sext i32 %49 to i64
  %51 = shl nsw i64 %50, 4
  tail call void @llvm.memset.p0.i64(ptr align 8 %48, i8 0, i64 %51, i1 false)
  store i32 %35, ptr %4, align 8
  br label %Vec_WecGrow.exit.i

Vec_WecGrow.exit.i:                               ; preds = %45, %33
  store i32 %21, ptr %10, align 4
  br label %52

52:                                               ; preds = %Vec_WecGrow.exit.i, %22
  %.val.i = load ptr, ptr %11, align 8
  %53 = getelementptr inbounds nuw %struct.Vec_Int_t_, ptr %.val.i, i64 %indvars.iv30
  %54 = getelementptr inbounds nuw i8, ptr %53, i64 4
  %55 = load i32, ptr %54, align 4
  %56 = load i32, ptr %53, align 8
  %57 = icmp eq i32 %55, %56
  br i1 %57, label %58, label %.Vec_IntGrow.exit10_crit_edge.i.i

.Vec_IntGrow.exit10_crit_edge.i.i:                ; preds = %52
  %.phi.trans.insert.i.i = getelementptr inbounds nuw i8, ptr %53, i64 8
  %.pre.i10.i = load ptr, ptr %.phi.trans.insert.i.i, align 8
  br label %Vec_WecPush.exit

58:                                               ; preds = %52
  %59 = icmp slt i32 %55, 16
  br i1 %59, label %60, label %68

60:                                               ; preds = %58
  %61 = getelementptr inbounds nuw i8, ptr %53, i64 8
  %62 = load ptr, ptr %61, align 8
  %.not9.i.i.i = icmp eq ptr %62, null
  br i1 %.not9.i.i.i, label %65, label %63

63:                                               ; preds = %60
  %64 = tail call dereferenceable_or_null(64) ptr @realloc(ptr noundef nonnull %62, i64 noundef 64) #21
  br label %Vec_IntGrow.exit.i.i

65:                                               ; preds = %60
  %66 = tail call noalias dereferenceable_or_null(64) ptr @malloc(i64 noundef 64) #19
  br label %Vec_IntGrow.exit.i.i

Vec_IntGrow.exit.i.i:                             ; preds = %65, %63
  %67 = phi ptr [ %64, %63 ], [ %66, %65 ]
  store ptr %67, ptr %61, align 8
  store i32 16, ptr %53, align 8
  br label %Vec_WecPush.exit

68:                                               ; preds = %58
  %69 = shl nuw nsw i32 %55, 1
  %70 = getelementptr inbounds nuw i8, ptr %53, i64 8
  %71 = load ptr, ptr %70, align 8
  %.not9.i9.i.i = icmp eq ptr %71, null
  %72 = zext nneg i32 %69 to i64
  %73 = shl nuw nsw i64 %72, 2
  br i1 %.not9.i9.i.i, label %76, label %74

74:                                               ; preds = %68
  %75 = tail call ptr @realloc(ptr noundef nonnull %71, i64 noundef %73) #21
  br label %78

76:                                               ; preds = %68
  %77 = tail call noalias ptr @malloc(i64 noundef %73) #19
  br label %78

78:                                               ; preds = %76, %74
  %79 = phi ptr [ %75, %74 ], [ %77, %76 ]
  store ptr %79, ptr %70, align 8
  store i32 %69, ptr %53, align 8
  br label %Vec_WecPush.exit

Vec_WecPush.exit:                                 ; preds = %.Vec_IntGrow.exit10_crit_edge.i.i, %Vec_IntGrow.exit.i.i, %78
  %80 = phi ptr [ %.pre.i10.i, %.Vec_IntGrow.exit10_crit_edge.i.i ], [ %79, %78 ], [ %67, %Vec_IntGrow.exit.i.i ]
  %81 = load i32, ptr %54, align 4
  %82 = add nsw i32 %81, 1
  store i32 %82, ptr %54, align 4
  %83 = sext i32 %81 to i64
  %84 = getelementptr inbounds i32, ptr %80, i64 %83
  store i32 %30, ptr %84, align 4
  %indvars.iv.next = add nuw nsw i64 %indvars.iv, 1
  %.val20 = load i32, ptr %17, align 4
  %85 = sext i32 %.val20 to i64
  %86 = icmp slt i64 %indvars.iv.next, %85
  br i1 %86, label %22, label %.critedge2.loopexit, !llvm.loop !24

.critedge2.loopexit:                              ; preds = %Vec_WecPush.exit
  %.val.pre = load i32, ptr %3, align 4
  br label %.critedge2

.critedge2:                                       ; preds = %..critedge2_crit_edge, %.critedge2.loopexit
  %indvars.iv.next31.pre-phi = phi i64 [ %.pre, %..critedge2_crit_edge ], [ %20, %.critedge2.loopexit ]
  %.val = phi i32 [ %.val33, %..critedge2_crit_edge ], [ %.val.pre, %.critedge2.loopexit ]
  %87 = sext i32 %.val to i64
  %88 = icmp slt i64 %indvars.iv.next31.pre-phi, %87
  br i1 %88, label %15, label %.critedge, !llvm.loop !25

.critedge:                                        ; preds = %.critedge2, %Vec_WecStart.exit
  ret ptr %4
}